; Function Attrs: mustprogress uwtable
define dso_local void @_ZN13btGhostObject28addOverlappingObjectInternalEP17btBroadphaseProxyS1_(ptr nocapture noundef nonnull align 8 dereferenceable(408) %this, ptr nocapture noundef readonly %otherProxy, ptr nocapture readnone %thisProxy) unnamed_addr #0 align 2 {
entry:
  %0 = load ptr, ptr %otherProxy, align 8
  %m_size.i.i = getelementptr inbounds i8, ptr %this, i64 380
  %1 = load i32, ptr %m_size.i.i, align 4
  %cmp5.i = icmp sgt i32 %1, 0
  br i1 %cmp5.i, label %for.body.lr.ph.i, label %if.then

for.body.lr.ph.i:                                 ; preds = %entry
  %m_data.i = getelementptr inbounds i8, ptr %this, i64 392
  %2 = load ptr, ptr %m_data.i, align 8
  %wide.trip.count.i = zext nneg i32 %1 to i64
  br label %for.body.i

for.body.i:                                       ; preds = %for.inc.i, %for.body.lr.ph.i
  %indvars.iv.i = phi i64 [ 0, %for.body.lr.ph.i ], [ %indvars.iv.next.i, %for.inc.i ]
  %arrayidx.i = getelementptr inbounds ptr, ptr %2, i64 %indvars.iv.i
  %3 = load ptr, ptr %arrayidx.i, align 8
  %cmp3.i = icmp eq ptr %3, %0
  br i1 %cmp3.i, label %_ZNK20btAlignedObjectArrayIP17btCollisionObjectE16findLinearSearchERKS1_.exit, label %for.inc.i

for.inc.i:                                        ; preds = %for.body.i
  %indvars.iv.next.i = add nuw nsw i64 %indvars.iv.i, 1
  %exitcond.not.i = icmp eq i64 %indvars.iv.next.i, %wide.trip.count.i
  br i1 %exitcond.not.i, label %if.then, label %for.body.i, !llvm.loop !5

_ZNK20btAlignedObjectArrayIP17btCollisionObjectE16findLinearSearchERKS1_.exit: ; preds = %for.body.i
  %4 = trunc i64 %indvars.iv.i to i32
  %cmp = icmp eq i32 %1, %4
  br i1 %cmp, label %if.then, label %if.end

if.then:                                          ; preds = %for.inc.i, %entry, %_ZNK20btAlignedObjectArrayIP17btCollisionObjectE16findLinearSearchERKS1_.exit
  %m_capacity.i.i = getelementptr inbounds i8, ptr %this, i64 384
  %5 = load i32, ptr %m_capacity.i.i, align 8
  %cmp.i = icmp eq i32 %1, %5
  br i1 %cmp.i, label %if.then.i, label %_ZN20btAlignedObjectArrayIP17btCollisionObjectE9push_backERKS1_.exit

if.then.i:                                        ; preds = %if.then
  %tobool.not.i.i = icmp eq i32 %1, 0
  %mul.i.i = shl nsw i32 %1, 1
  %cond.i.i = select i1 %tobool.not.i.i, i32 1, i32 %mul.i.i
  %cmp.i.i = icmp slt i32 %1, %cond.i.i
  br i1 %cmp.i.i, label %if.then.i.i, label %_ZN20btAlignedObjectArrayIP17btCollisionObjectE9push_backERKS1_.exit

if.then.i.i:                                      ; preds = %if.then.i
  %tobool.not.i.i.i = icmp eq i32 %cond.i.i, 0
  br i1 %tobool.not.i.i.i, label %_ZN20btAlignedObjectArrayIP17btCollisionObjectE8allocateEi.exit.i.i, label %if.then.i.i.i

if.then.i.i.i:                                    ; preds = %if.then.i.i
  %conv.i.i.i.i = sext i32 %cond.i.i to i64
  %mul.i.i.i.i = shl nsw i64 %conv.i.i.i.i, 3
  %call.i.i.i.i = tail call noundef ptr @_Z22btAlignedAllocInternalmi(i64 noundef %mul.i.i.i.i, i32 noundef 16)
  %.pre.i = load i32, ptr %m_size.i.i, align 4
  br label %_ZN20btAlignedObjectArrayIP17btCollisionObjectE8allocateEi.exit.i.i

_ZN20btAlignedObjectArrayIP17btCollisionObjectE8allocateEi.exit.i.i: ; preds = %if.then.i.i.i, %if.then.i.i
  %6 = phi i32 [ %.pre.i, %if.then.i.i.i ], [ %1, %if.then.i.i ]
  %retval.0.i.i.i = phi ptr [ %call.i.i.i.i, %if.then.i.i.i ], [ null, %if.then.i.i ]
  %cmp4.i.i.i = icmp sgt i32 %6, 0
  br i1 %cmp4.i.i.i, label %for.body.lr.ph.i.i.i, label %_ZNK20btAlignedObjectArrayIP17btCollisionObjectE4copyEiiPS1_.exit.i.i

for.body.lr.ph.i.i.i:                             ; preds = %_ZN20btAlignedObjectArrayIP17btCollisionObjectE8allocateEi.exit.i.i
  %m_data.i.i.i = getelementptr inbounds i8, ptr %this, i64 392
  %wide.trip.count.i.i.i = zext nneg i32 %6 to i64
  br label %for.body.i.i.i

for.body.i.i.i:                                   ; preds = %for.body.i.i.i, %for.body.lr.ph.i.i.i
  %indvars.iv.i.i.i = phi i64 [ 0, %for.body.lr.ph.i.i.i ], [ %indvars.iv.next.i.i.i, %for.body.i.i.i ]
  %arrayidx.i.i.i = getelementptr inbounds ptr, ptr %retval.0.i.i.i, i64 %indvars.iv.i.i.i
  %7 = load ptr, ptr %m_data.i.i.i, align 8
  %arrayidx3.i.i.i = getelementptr inbounds ptr, ptr %7, i64 %indvars.iv.i.i.i
  %8 = load ptr, ptr %arrayidx3.i.i.i, align 8
  store ptr %8, ptr %arrayidx.i.i.i, align 8
  %indvars.iv.next.i.i.i = add nuw nsw i64 %indvars.iv.i.i.i, 1
  %exitcond.not.i.i.i = icmp eq i64 %indvars.iv.next.i.i.i, %wide.trip.count.i.i.i
  br i1 %exitcond.not.i.i.i, label %_ZNK20btAlignedObjectArrayIP17btCollisionObjectE4copyEiiPS1_.exit.i.i, label %for.body.i.i.i, !llvm.loop !7

_ZNK20btAlignedObjectArrayIP17btCollisionObjectE4copyEiiPS1_.exit.i.i: ; preds = %for.body.i.i.i, %_ZN20btAlignedObjectArrayIP17btCollisionObjectE8allocateEi.exit.i.i
  %m_data.i5.i.i = getelementptr inbounds i8, ptr %this, i64 392
  %9 = load ptr, ptr %m_data.i5.i.i, align 8
  %tobool.not.i6.i.i = icmp eq ptr %9, null
  br i1 %tobool.not.i6.i.i, label %_ZN20btAlignedObjectArrayIP17btCollisionObjectE10deallocateEv.exit.i.i, label %if.then.i7.i.i

if.then.i7.i.i:                                   ; preds = %_ZNK20btAlignedObjectArrayIP17btCollisionObjectE4copyEiiPS1_.exit.i.i
  %m_ownsMemory.i.i.i = getelementptr inbounds i8, ptr %this, i64 400
  %10 = load i8, ptr %m_ownsMemory.i.i.i, align 8
  %11 = and i8 %10, 1
  %tobool2.not.i.i.i = icmp eq i8 %11, 0
  br i1 %tobool2.not.i.i.i, label %_ZN20btAlignedObjectArrayIP17btCollisionObjectE10deallocateEv.exit.i.i, label %if.then3.i.i.i

if.then3.i.i.i:                                   ; preds = %if.then.i7.i.i
  tail call void @_Z21btAlignedFreeInternalPv(ptr noundef nonnull %9)
  br label %_ZN20btAlignedObjectArrayIP17btCollisionObjectE10deallocateEv.exit.i.i

_ZN20btAlignedObjectArrayIP17btCollisionObjectE10deallocateEv.exit.i.i: ; preds = %if.then3.i.i.i, %if.then.i7.i.i, %_ZNK20btAlignedObjectArrayIP17btCollisionObjectE4copyEiiPS1_.exit.i.i
  %m_ownsMemory.i.i = getelementptr inbounds i8, ptr %this, i64 400
  store i8 1, ptr %m_ownsMemory.i.i, align 8
  store ptr %retval.0.i.i.i, ptr %m_data.i5.i.i, align 8
  store i32 %cond.i.i, ptr %m_capacity.i.i, align 8
  %.pre2.i = load i32, ptr %m_size.i.i, align 4
  br label %_ZN20btAlignedObjectArrayIP17btCollisionObjectE9push_backERKS1_.exit

_ZN20btAlignedObjectArrayIP17btCollisionObjectE9push_backERKS1_.exit: ; preds = %if.then, %if.then.i, %_ZN20btAlignedObjectArrayIP17btCollisionObjectE10deallocateEv.exit.i.i
  %12 = phi i32 [ %.pre2.i, %_ZN20btAlignedObjectArrayIP17btCollisionObjectE10deallocateEv.exit.i.i ], [ %1, %if.then.i ], [ %1, %if.then ]
  %m_data.i2 = getelementptr inbounds i8, ptr %this, i64 392
  %13 = load ptr, ptr %m_data.i2, align 8
  %idxprom.i = sext i32 %12 to i64
  %arrayidx.i3 = getelementptr inbounds ptr, ptr %13, i64 %idxprom.i
  store ptr %0, ptr %arrayidx.i3, align 8
  %14 = load i32, ptr %m_size.i.i, align 4
  %inc.i = add nsw i32 %14, 1
  store i32 %inc.i, ptr %m_size.i.i, align 4
  br label %if.end

if.end:                                           ; preds = %_ZN20btAlignedObjectArrayIP17btCollisionObjectE9push_backERKS1_.exit, %_ZNK20btAlignedObjectArrayIP17btCollisionObjectE16findLinearSearchERKS1_.exit
  ret void
}